target datalayout = "e-m:e-p270:32:32-p271:32:32-p272:64:64-i64:64-i128:128-f80:128-n8:16:32:64-S128"
target triple = "x86_64-pc-linux-gnu"

%struct.ccm128_context = type { %union.anon, %union.anon, i64, ptr, ptr }
%union.anon = type { [2 x i64] }

; Function Attrs: nounwind uwtable
define void @CRYPTO_ccm128_aad(ptr noundef %0, ptr noundef %1, i64 noundef %2) #0 {
  %4 = alloca ptr, align 8
  %5 = alloca ptr, align 8
  %6 = alloca i64, align 8
  %7 = alloca i32, align 4
  %8 = alloca ptr, align 8
  %9 = alloca i32, align 4
  store ptr %0, ptr %4, align 8, !tbaa !3
  store ptr %1, ptr %5, align 8, !tbaa !17
  store i64 %2, ptr %6, align 8, !tbaa !19
  call void @llvm.lifetime.start.p0(i64 4, ptr %7) #4
  call void @llvm.lifetime.start.p0(i64 8, ptr %8) #4
  %10 = load ptr, ptr %4, align 8, !tbaa !3
  %11 = getelementptr inbounds nuw %struct.ccm128_context, ptr %10, i32 0, i32 3
  %12 = load ptr, ptr %11, align 8, !tbaa !15
  store ptr %12, ptr %8, align 8, !tbaa !10
  %13 = load i64, ptr %6, align 8, !tbaa !19
  %14 = icmp eq i64 %13, 0
  br i1 %14, label %15, label %16

15:                                               ; preds = %3
  store i32 1, ptr %9, align 4
  br label %275

16:                                               ; preds = %3
  %17 = load ptr, ptr %4, align 8, !tbaa !3
  %18 = getelementptr inbounds nuw %struct.ccm128_context, ptr %17, i32 0, i32 0
  %19 = getelementptr inbounds [16 x i8], ptr %18, i64 0, i64 0
  %20 = load i8, ptr %19, align 8, !tbaa !11
  %21 = zext i8 %20 to i32
  %22 = or i32 %21, 64
  %23 = trunc i32 %22 to i8
  store i8 %23, ptr %19, align 8, !tbaa !11
  %24 = load ptr, ptr %8, align 8, !tbaa !10
  %25 = load ptr, ptr %4, align 8, !tbaa !3
  %26 = getelementptr inbounds nuw %struct.ccm128_context, ptr %25, i32 0, i32 0
  %27 = getelementptr inbounds [16 x i8], ptr %26, i64 0, i64 0
  %28 = load ptr, ptr %4, align 8, !tbaa !3
  %29 = getelementptr inbounds nuw %struct.ccm128_context, ptr %28, i32 0, i32 1
  %30 = getelementptr inbounds [16 x i8], ptr %29, i64 0, i64 0
  %31 = load ptr, ptr %4, align 8, !tbaa !3
  %32 = getelementptr inbounds nuw %struct.ccm128_context, ptr %31, i32 0, i32 4
  %33 = load ptr, ptr %32, align 8, !tbaa !16
  call void %24(ptr noundef %27, ptr noundef %30, ptr noundef %33)
  %34 = load ptr, ptr %4, align 8, !tbaa !3
  %35 = getelementptr inbounds nuw %struct.ccm128_context, ptr %34, i32 0, i32 2
  %36 = load i64, ptr %35, align 8, !tbaa !12
  %37 = add i64 %36, 1
  store i64 %37, ptr %35, align 8, !tbaa !12
  %38 = load i64, ptr %6, align 8, !tbaa !19
  %39 = icmp ult i64 %38, 65280
  br i1 %39, label %40, label %62

40:                                               ; preds = %16
  %41 = load i64, ptr %6, align 8, !tbaa !19
  %42 = lshr i64 %41, 8
  %43 = trunc i64 %42 to i8
  %44 = zext i8 %43 to i32
  %45 = load ptr, ptr %4, align 8, !tbaa !3
  %46 = getelementptr inbounds nuw %struct.ccm128_context, ptr %45, i32 0, i32 1
  %47 = getelementptr inbounds [16 x i8], ptr %46, i64 0, i64 0
  %48 = load i8, ptr %47, align 8, !tbaa !11
  %49 = zext i8 %48 to i32
  %50 = xor i32 %49, %44
  %51 = trunc i32 %50 to i8
  store i8 %51, ptr %47, align 8, !tbaa !11
  %52 = load i64, ptr %6, align 8, !tbaa !19
  %53 = trunc i64 %52 to i8
  %54 = zext i8 %53 to i32
  %55 = load ptr, ptr %4, align 8, !tbaa !3
  %56 = getelementptr inbounds nuw %struct.ccm128_context, ptr %55, i32 0, i32 1
  %57 = getelementptr inbounds [16 x i8], ptr %56, i64 0, i64 1
  %58 = load i8, ptr %57, align 1, !tbaa !11
  %59 = zext i8 %58 to i32
  %60 = xor i32 %59, %54
  %61 = trunc i32 %60 to i8
  store i8 %61, ptr %57, align 1, !tbaa !11
  store i32 2, ptr %7, align 4, !tbaa !8
  br label %226

62:                                               ; preds = %16
  %63 = load i64, ptr %6, align 8, !tbaa !19
  %64 = icmp uge i64 %63, 4294967296
  br i1 %64, label %65, label %167

65:                                               ; preds = %62
  %66 = load ptr, ptr %4, align 8, !tbaa !3
  %67 = getelementptr inbounds nuw %struct.ccm128_context, ptr %66, i32 0, i32 1
  %68 = getelementptr inbounds [16 x i8], ptr %67, i64 0, i64 0
  %69 = load i8, ptr %68, align 8, !tbaa !11
  %70 = zext i8 %69 to i32
  %71 = xor i32 %70, 255
  %72 = trunc i32 %71 to i8
  store i8 %72, ptr %68, align 8, !tbaa !11
  %73 = load ptr, ptr %4, align 8, !tbaa !3
  %74 = getelementptr inbounds nuw %struct.ccm128_context, ptr %73, i32 0, i32 1
  %75 = getelementptr inbounds [16 x i8], ptr %74, i64 0, i64 1
  %76 = load i8, ptr %75, align 1, !tbaa !11
  %77 = zext i8 %76 to i32
  %78 = xor i32 %77, 255
  %79 = trunc i32 %78 to i8
  store i8 %79, ptr %75, align 1, !tbaa !11
  %80 = load i64, ptr %6, align 8, !tbaa !19
  %81 = lshr i64 %80, 56
  %82 = trunc i64 %81 to i8
  %83 = zext i8 %82 to i32
  %84 = load ptr, ptr %4, align 8, !tbaa !3
  %85 = getelementptr inbounds nuw %struct.ccm128_context, ptr %84, i32 0, i32 1
  %86 = getelementptr inbounds [16 x i8], ptr %85, i64 0, i64 2
  %87 = load i8, ptr %86, align 2, !tbaa !11
  %88 = zext i8 %87 to i32
  %89 = xor i32 %88, %83
  %90 = trunc i32 %89 to i8
  store i8 %90, ptr %86, align 2, !tbaa !11
  %91 = load i64, ptr %6, align 8, !tbaa !19
  %92 = lshr i64 %91, 48
  %93 = trunc i64 %92 to i8
  %94 = zext i8 %93 to i32
  %95 = load ptr, ptr %4, align 8, !tbaa !3
  %96 = getelementptr inbounds nuw %struct.ccm128_context, ptr %95, i32 0, i32 1
  %97 = getelementptr inbounds [16 x i8], ptr %96, i64 0, i64 3
  %98 = load i8, ptr %97, align 1, !tbaa !11
  %99 = zext i8 %98 to i32
  %100 = xor i32 %99, %94
  %101 = trunc i32 %100 to i8
  store i8 %101, ptr %97, align 1, !tbaa !11
  %102 = load i64, ptr %6, align 8, !tbaa !19
  %103 = lshr i64 %102, 40
  %104 = trunc i64 %103 to i8
  %105 = zext i8 %104 to i32
  %106 = load ptr, ptr %4, align 8, !tbaa !3
  %107 = getelementptr inbounds nuw %struct.ccm128_context, ptr %106, i32 0, i32 1
  %108 = getelementptr inbounds [16 x i8], ptr %107, i64 0, i64 4
  %109 = load i8, ptr %108, align 4, !tbaa !11
  %110 = zext i8 %109 to i32
  %111 = xor i32 %110, %105
  %112 = trunc i32 %111 to i8
  store i8 %112, ptr %108, align 4, !tbaa !11
  %113 = load i64, ptr %6, align 8, !tbaa !19
  %114 = lshr i64 %113, 32
  %115 = trunc i64 %114 to i8
  %116 = zext i8 %115 to i32
  %117 = load ptr, ptr %4, align 8, !tbaa !3
  %118 = getelementptr inbounds nuw %struct.ccm128_context, ptr %117, i32 0, i32 1
  %119 = getelementptr inbounds [16 x i8], ptr %118, i64 0, i64 5
  %120 = load i8, ptr %119, align 1, !tbaa !11
  %121 = zext i8 %120 to i32
  %122 = xor i32 %121, %116
  %123 = trunc i32 %122 to i8
  store i8 %123, ptr %119, align 1, !tbaa !11
  %124 = load i64, ptr %6, align 8, !tbaa !19
  %125 = lshr i64 %124, 24
  %126 = trunc i64 %125 to i8
  %127 = zext i8 %126 to i32
  %128 = load ptr, ptr %4, align 8, !tbaa !3
  %129 = getelementptr inbounds nuw %struct.ccm128_context, ptr %128, i32 0, i32 1
  %130 = getelementptr inbounds [16 x i8], ptr %129, i64 0, i64 6
  %131 = load i8, ptr %130, align 2, !tbaa !11
  %132 = zext i8 %131 to i32
  %133 = xor i32 %132, %127
  %134 = trunc i32 %133 to i8
  store i8 %134, ptr %130, align 2, !tbaa !11
  %135 = load i64, ptr %6, align 8, !tbaa !19
  %136 = lshr i64 %135, 16
  %137 = trunc i64 %136 to i8
  %138 = zext i8 %137 to i32
  %139 = load ptr, ptr %4, align 8, !tbaa !3
  %140 = getelementptr inbounds nuw %struct.ccm128_context, ptr %139, i32 0, i32 1
  %141 = getelementptr inbounds [16 x i8], ptr %140, i64 0, i64 7
  %142 = load i8, ptr %141, align 1, !tbaa !11
  %143 = zext i8 %142 to i32
  %144 = xor i32 %143, %138
  %145 = trunc i32 %144 to i8
  store i8 %145, ptr %141, align 1, !tbaa !11
  %146 = load i64, ptr %6, align 8, !tbaa !19
  %147 = lshr i64 %146, 8
  %148 = trunc i64 %147 to i8
  %149 = zext i8 %148 to i32
  %150 = load ptr, ptr %4, align 8, !tbaa !3
  %151 = getelementptr inbounds nuw %struct.ccm128_context, ptr %150, i32 0, i32 1
  %152 = getelementptr inbounds [16 x i8], ptr %151, i64 0, i64 8
  %153 = load i8, ptr %152, align 8, !tbaa !11
  %154 = zext i8 %153 to i32
  %155 = xor i32 %154, %149
  %156 = trunc i32 %155 to i8
  store i8 %156, ptr %152, align 8, !tbaa !11
  %157 = load i64, ptr %6, align 8, !tbaa !19
  %158 = trunc i64 %157 to i8
  %159 = zext i8 %158 to i32
  %160 = load ptr, ptr %4, align 8, !tbaa !3
  %161 = getelementptr inbounds nuw %struct.ccm128_context, ptr %160, i32 0, i32 1
  %162 = getelementptr inbounds [16 x i8], ptr %161, i64 0, i64 9
  %163 = load i8, ptr %162, align 1, !tbaa !11
  %164 = zext i8 %163 to i32
  %165 = xor i32 %164, %159
  %166 = trunc i32 %165 to i8
  store i8 %166, ptr %162, align 1, !tbaa !11
  store i32 10, ptr %7, align 4, !tbaa !8
  br label %225

167:                                              ; preds = %62
  %168 = load ptr, ptr %4, align 8, !tbaa !3
  %169 = getelementptr inbounds nuw %struct.ccm128_context, ptr %168, i32 0, i32 1
  %170 = getelementptr inbounds [16 x i8], ptr %169, i64 0, i64 0
  %171 = load i8, ptr %170, align 8, !tbaa !11
  %172 = zext i8 %171 to i32
  %173 = xor i32 %172, 255
  %174 = trunc i32 %173 to i8
  store i8 %174, ptr %170, align 8, !tbaa !11
  %175 = load ptr, ptr %4, align 8, !tbaa !3
  %176 = getelementptr inbounds nuw %struct.ccm128_context, ptr %175, i32 0, i32 1
  %177 = getelementptr inbounds [16 x i8], ptr %176, i64 0, i64 1
  %178 = load i8, ptr %177, align 1, !tbaa !11
  %179 = zext i8 %178 to i32
  %180 = xor i32 %179, 254
  %181 = trunc i32 %180 to i8
  store i8 %181, ptr %177, align 1, !tbaa !11
  %182 = load i64, ptr %6, align 8, !tbaa !19
  %183 = lshr i64 %182, 24
  %184 = trunc i64 %183 to i8
  %185 = zext i8 %184 to i32
  %186 = load ptr, ptr %4, align 8, !tbaa !3
  %187 = getelementptr inbounds nuw %struct.ccm128_context, ptr %186, i32 0, i32 1
  %188 = getelementptr inbounds [16 x i8], ptr %187, i64 0, i64 2
  %189 = load i8, ptr %188, align 2, !tbaa !11
  %190 = zext i8 %189 to i32
  %191 = xor i32 %190, %185
  %192 = trunc i32 %191 to i8
  store i8 %192, ptr %188, align 2, !tbaa !11
  %193 = load i64, ptr %6, align 8, !tbaa !19
  %194 = lshr i64 %193, 16
  %195 = trunc i64 %194 to i8
  %196 = zext i8 %195 to i32
  %197 = load ptr, ptr %4, align 8, !tbaa !3
  %198 = getelementptr inbounds nuw %struct.ccm128_context, ptr %197, i32 0, i32 1
  %199 = getelementptr inbounds [16 x i8], ptr %198, i64 0, i64 3
  %200 = load i8, ptr %199, align 1, !tbaa !11
  %201 = zext i8 %200 to i32
  %202 = xor i32 %201, %196
  %203 = trunc i32 %202 to i8
  store i8 %203, ptr %199, align 1, !tbaa !11
  %204 = load i64, ptr %6, align 8, !tbaa !19
  %205 = lshr i64 %204, 8
  %206 = trunc i64 %205 to i8
  %207 = zext i8 %206 to i32
  %208 = load ptr, ptr %4, align 8, !tbaa !3
  %209 = getelementptr inbounds nuw %struct.ccm128_context, ptr %208, i32 0, i32 1
  %210 = getelementptr inbounds [16 x i8], ptr %209, i64 0, i64 4
  %211 = load i8, ptr %210, align 4, !tbaa !11
  %212 = zext i8 %211 to i32
  %213 = xor i32 %212, %207
  %214 = trunc i32 %213 to i8
  store i8 %214, ptr %210, align 4, !tbaa !11
  %215 = load i64, ptr %6, align 8, !tbaa !19
  %216 = trunc i64 %215 to i8
  %217 = zext i8 %216 to i32
  %218 = load ptr, ptr %4, align 8, !tbaa !3
  %219 = getelementptr inbounds nuw %struct.ccm128_context, ptr %218, i32 0, i32 1
  %220 = getelementptr inbounds [16 x i8], ptr %219, i64 0, i64 5
  %221 = load i8, ptr %220, align 1, !tbaa !11
  %222 = zext i8 %221 to i32
  %223 = xor i32 %222, %217
  %224 = trunc i32 %223 to i8
  store i8 %224, ptr %220, align 1, !tbaa !11
  store i32 6, ptr %7, align 4, !tbaa !8
  br label %225

225:                                              ; preds = %167, %65
  br label %226

226:                                              ; preds = %225, %40
  br label %227

227:                                              ; preds = %271, %226
  br label %228

228:                                              ; preds = %249, %227
  %229 = load i32, ptr %7, align 4, !tbaa !8
  %230 = icmp ult i32 %229, 16
  br i1 %230, label %231, label %234

231:                                              ; preds = %228
  %232 = load i64, ptr %6, align 8, !tbaa !19
  %233 = icmp ne i64 %232, 0
  br label %234

234:                                              ; preds = %231, %228
  %235 = phi i1 [ false, %228 ], [ %233, %231 ]
  br i1 %235, label %236, label %256

236:                                              ; preds = %234
  %237 = load ptr, ptr %5, align 8, !tbaa !17
  %238 = load i8, ptr %237, align 1, !tbaa !11
  %239 = zext i8 %238 to i32
  %240 = load ptr, ptr %4, align 8, !tbaa !3
  %241 = getelementptr inbounds nuw %struct.ccm128_context, ptr %240, i32 0, i32 1
  %242 = load i32, ptr %7, align 4, !tbaa !8
  %243 = zext i32 %242 to i64
  %244 = getelementptr inbounds nuw [16 x i8], ptr %241, i64 0, i64 %243
  %245 = load i8, ptr %244, align 1, !tbaa !11
  %246 = zext i8 %245 to i32
  %247 = xor i32 %246, %239
  %248 = trunc i32 %247 to i8
  store i8 %248, ptr %244, align 1, !tbaa !11
  br label %249

249:                                              ; preds = %236
  %250 = load i32, ptr %7, align 4, !tbaa !8
  %251 = add i32 %250, 1
  store i32 %251, ptr %7, align 4, !tbaa !8
  %252 = load ptr, ptr %5, align 8, !tbaa !17
  %253 = getelementptr inbounds nuw i8, ptr %252, i32 1
  store ptr %253, ptr %5, align 8, !tbaa !17
  %254 = load i64, ptr %6, align 8, !tbaa !19
  %255 = add i64 %254, -1
  store i64 %255, ptr %6, align 8, !tbaa !19
  br label %228, !llvm.loop !21

256:                                              ; preds = %234
  %257 = load ptr, ptr %8, align 8, !tbaa !10
  %258 = load ptr, ptr %4, align 8, !tbaa !3
  %259 = getelementptr inbounds nuw %struct.ccm128_context, ptr %258, i32 0, i32 1
  %260 = getelementptr inbounds [16 x i8], ptr %259, i64 0, i64 0
  %261 = load ptr, ptr %4, align 8, !tbaa !3
  %262 = getelementptr inbounds nuw %struct.ccm128_context, ptr %261, i32 0, i32 1
  %263 = getelementptr inbounds [16 x i8], ptr %262, i64 0, i64 0
  %264 = load ptr, ptr %4, align 8, !tbaa !3
  %265 = getelementptr inbounds nuw %struct.ccm128_context, ptr %264, i32 0, i32 4
  %266 = load ptr, ptr %265, align 8, !tbaa !16
  call void %257(ptr noundef %260, ptr noundef %263, ptr noundef %266)
  %267 = load ptr, ptr %4, align 8, !tbaa !3
  %268 = getelementptr inbounds nuw %struct.ccm128_context, ptr %267, i32 0, i32 2
  %269 = load i64, ptr %268, align 8, !tbaa !12
  %270 = add i64 %269, 1
  store i64 %270, ptr %268, align 8, !tbaa !12
  store i32 0, ptr %7, align 4, !tbaa !8
  br label %271

271:                                              ; preds = %256
  %272 = load i64, ptr %6, align 8, !tbaa !19
  %273 = icmp ne i64 %272, 0
  br i1 %273, label %227, label %274, !llvm.loop !23

274:                                              ; preds = %271
  store i32 0, ptr %9, align 4
  br label %275

275:                                              ; preds = %274, %15
  call void @llvm.lifetime.end.p0(i64 8, ptr %8) #4
  call void @llvm.lifetime.end.p0(i64 4, ptr %7) #4
  %276 = load i32, ptr %9, align 4
  switch i32 %276, label %278 [
    i32 0, label %277
    i32 1, label %277
  ]

277:                                              ; preds = %275, %275
  ret void

278:                                              ; preds = %275
  unreachable
}