; Function Attrs: nounwind uwtable
define void @CRYPTO_ccm128_aad(ptr noundef %0, ptr noundef readonly captures(none) %1, i64 noundef %2) local_unnamed_addr #5 {
  %4 = getelementptr inbounds nuw i8, ptr %0, i64 40
  %5 = load ptr, ptr %4, align 8, !tbaa !10
  %6 = icmp eq i64 %2, 0
  br i1 %6, label %.loopexit, label %7

7:                                                ; preds = %3
  %8 = load i8, ptr %0, align 8, !tbaa !3
  %9 = or i8 %8, 64
  store i8 %9, ptr %0, align 8, !tbaa !3
  %10 = getelementptr inbounds nuw i8, ptr %0, i64 16
  %11 = getelementptr inbounds nuw i8, ptr %0, i64 48
  %12 = load ptr, ptr %11, align 8, !tbaa !11
  tail call void %5(ptr noundef nonnull %0, ptr noundef nonnull %10, ptr noundef %12) #7
  %13 = getelementptr inbounds nuw i8, ptr %0, i64 32
  %14 = load i64, ptr %13, align 8, !tbaa !6
  %15 = add i64 %14, 1
  store i64 %15, ptr %13, align 8, !tbaa !6
  %16 = icmp ult i64 %2, 65280
  br i1 %16, label %17, label %22

17:                                               ; preds = %7
  %18 = lshr i64 %2, 8
  %19 = trunc nuw i64 %18 to i8
  %20 = load i8, ptr %10, align 8, !tbaa !3
  %21 = xor i8 %20, %19
  store i8 %21, ptr %10, align 8, !tbaa !3
  br label %81

22:                                               ; preds = %7
  %23 = icmp ugt i64 %2, 4294967295
  %24 = load i8, ptr %10, align 8, !tbaa !3
  %25 = xor i8 %24, -1
  store i8 %25, ptr %10, align 8, !tbaa !3
  %26 = getelementptr inbounds nuw i8, ptr %0, i64 17
  %27 = load i8, ptr %26, align 1, !tbaa !3
  %28 = getelementptr inbounds nuw i8, ptr %0, i64 18
  br i1 %23, label %29, label %65

29:                                               ; preds = %22
  %30 = xor i8 %27, -1
  store i8 %30, ptr %26, align 1, !tbaa !3
  %31 = lshr i64 %2, 56
  %32 = trunc nuw i64 %31 to i8
  %33 = load i8, ptr %28, align 2, !tbaa !3
  %34 = xor i8 %33, %32
  store i8 %34, ptr %28, align 2, !tbaa !3
  %35 = lshr i64 %2, 48
  %36 = trunc i64 %35 to i8
  %37 = getelementptr inbounds nuw i8, ptr %0, i64 19
  %38 = load i8, ptr %37, align 1, !tbaa !3
  %39 = xor i8 %38, %36
  store i8 %39, ptr %37, align 1, !tbaa !3
  %40 = lshr i64 %2, 40
  %41 = trunc i64 %40 to i8
  %42 = getelementptr inbounds nuw i8, ptr %0, i64 20
  %43 = load i8, ptr %42, align 4, !tbaa !3
  %44 = xor i8 %43, %41
  store i8 %44, ptr %42, align 4, !tbaa !3
  %45 = lshr i64 %2, 32
  %46 = trunc i64 %45 to i8
  %47 = getelementptr inbounds nuw i8, ptr %0, i64 21
  %48 = load i8, ptr %47, align 1, !tbaa !3
  %49 = xor i8 %48, %46
  store i8 %49, ptr %47, align 1, !tbaa !3
  %50 = getelementptr inbounds nuw i8, ptr %0, i64 22
  %51 = load i8, ptr %50, align 2, !tbaa !3
  %52 = lshr i64 %2, 24
  %53 = trunc i64 %52 to i8
  %54 = xor i8 %51, %53
  store i8 %54, ptr %50, align 2, !tbaa !3
  %55 = getelementptr inbounds nuw i8, ptr %0, i64 23
  %56 = load i8, ptr %55, align 1, !tbaa !3
  %57 = lshr i64 %2, 16
  %58 = trunc i64 %57 to i8
  %59 = xor i8 %56, %58
  store i8 %59, ptr %55, align 1, !tbaa !3
  %60 = getelementptr inbounds nuw i8, ptr %0, i64 24
  %61 = load i8, ptr %60, align 8, !tbaa !3
  %62 = lshr i64 %2, 8
  %63 = trunc i64 %62 to i8
  %64 = xor i8 %61, %63
  store i8 %64, ptr %60, align 8, !tbaa !3
  br label %81

65:                                               ; preds = %22
  %66 = xor i8 %27, -2
  store i8 %66, ptr %26, align 1, !tbaa !3
  %67 = lshr i64 %2, 24
  %68 = trunc nuw i64 %67 to i8
  %69 = load i8, ptr %28, align 2, !tbaa !3
  %70 = xor i8 %69, %68
  store i8 %70, ptr %28, align 2, !tbaa !3
  %71 = getelementptr inbounds nuw i8, ptr %0, i64 19
  %72 = load i8, ptr %71, align 1, !tbaa !3
  %73 = lshr i64 %2, 16
  %74 = trunc i64 %73 to i8
  %75 = xor i8 %72, %74
  store i8 %75, ptr %71, align 1, !tbaa !3
  %76 = getelementptr inbounds nuw i8, ptr %0, i64 20
  %77 = load i8, ptr %76, align 4, !tbaa !3
  %78 = lshr i64 %2, 8
  %79 = trunc i64 %78 to i8
  %80 = xor i8 %77, %79
  store i8 %80, ptr %76, align 4, !tbaa !3
  br label %81

81:                                               ; preds = %29, %65, %17
  %.sink75 = phi i64 [ 25, %29 ], [ 21, %65 ], [ 17, %17 ]
  %.055 = phi i64 [ 10, %29 ], [ 6, %65 ], [ 2, %17 ]
  %82 = trunc i64 %2 to i8
  %83 = getelementptr inbounds nuw i8, ptr %0, i64 %.sink75
  %84 = load i8, ptr %83, align 1, !tbaa !3
  %85 = xor i8 %84, %82
  store i8 %85, ptr %83, align 1, !tbaa !3
  br label %86

86:                                               ; preds = %._crit_edge, %81
  %.057 = phi i64 [ %2, %81 ], [ %.158.lcssa, %._crit_edge ]
  %.156 = phi i64 [ %.055, %81 ], [ 0, %._crit_edge ]
  %.0 = phi ptr [ %1, %81 ], [ %.1.lcssa, %._crit_edge ]
  %.not = icmp eq i64 %.057, 0
  br i1 %.not, label %._crit_edge, label %.lr.ph

.lr.ph:                                           ; preds = %86, %.lr.ph
  %indvars.iv = phi i64 [ %indvars.iv.next, %.lr.ph ], [ %.156, %86 ]
  %.162 = phi ptr [ %91, %.lr.ph ], [ %.0, %86 ]
  %.15860 = phi i64 [ %92, %.lr.ph ], [ %.057, %86 ]
  %87 = load i8, ptr %.162, align 1, !tbaa !3
  %88 = getelementptr inbounds nuw [16 x i8], ptr %10, i64 0, i64 %indvars.iv
  %89 = load i8, ptr %88, align 1, !tbaa !3
  %90 = xor i8 %89, %87
  store i8 %90, ptr %88, align 1, !tbaa !3
  %indvars.iv.next = add nuw nsw i64 %indvars.iv, 1
  %91 = getelementptr inbounds nuw i8, ptr %.162, i64 1
  %92 = add i64 %.15860, -1
  %93 = icmp samesign ult i64 %indvars.iv, 15
  %94 = icmp ne i64 %92, 0
  %95 = select i1 %93, i1 %94, i1 false
  br i1 %95, label %.lr.ph, label %._crit_edge, !llvm.loop !12

._crit_edge:                                      ; preds = %.lr.ph, %86
  %.158.lcssa = phi i64 [ 0, %86 ], [ %92, %.lr.ph ]
  %.1.lcssa = phi ptr [ %.0, %86 ], [ %91, %.lr.ph ]
  %.lcssa = phi i1 [ false, %86 ], [ %94, %.lr.ph ]
  %96 = load ptr, ptr %11, align 8, !tbaa !11
  tail call void %5(ptr noundef nonnull %10, ptr noundef nonnull %10, ptr noundef %96) #7
  %97 = load i64, ptr %13, align 8, !tbaa !6
  %98 = add i64 %97, 1
  store i64 %98, ptr %13, align 8, !tbaa !6
  br i1 %.lcssa, label %86, label %.loopexit, !llvm.loop !14

.loopexit:                                        ; preds = %._crit_edge, %3
  ret void
}